target datalayout = "e-m:e-p270:32:32-p271:32:32-p272:64:64-i64:64-i128:128-f80:128-n8:16:32:64-S128"
target triple = "x86_64-pc-linux-gnu"

%struct.ExecRowMark = type { ptr, i32, i32, i32, i32, i32, i32, i32, i8, %struct.ItemPointerData, ptr }
%struct.ItemPointerData = type { %struct.BlockIdData, i16 }
%struct.BlockIdData = type { i16, i16 }
%struct.ExecAuxRowMark = type { ptr, i16, i16, i16 }

@.str.1 = private unnamed_addr constant [11 x i8] c"execMain.c\00", align 1
@.str.32 = private unnamed_addr constant [7 x i8] c"ctid%u\00", align 1
@.str.33 = private unnamed_addr constant [30 x i8] c"could not find junk %s column\00", align 1
@__func__.ExecBuildAuxRowMark = private unnamed_addr constant [20 x i8] c"ExecBuildAuxRowMark\00", align 1
@.str.34 = private unnamed_addr constant [11 x i8] c"wholerow%u\00", align 1
@.str.35 = private unnamed_addr constant [11 x i8] c"tableoid%u\00", align 1

; Function Attrs: nounwind uwtable
define dso_local ptr @ExecBuildAuxRowMark(ptr noundef %0, ptr noundef %1) #0 {
  %3 = alloca ptr, align 8
  %4 = alloca ptr, align 8
  %5 = alloca ptr, align 8
  %6 = alloca [32 x i8], align 16
  store ptr %0, ptr %3, align 8
  store ptr %1, ptr %4, align 8
  call void @llvm.lifetime.start.p0(i64 8, ptr %5) #9
  %7 = call ptr @palloc0(i64 noundef 16)
  store ptr %7, ptr %5, align 8
  call void @llvm.lifetime.start.p0(i64 32, ptr %6) #9
  %8 = load ptr, ptr %3, align 8
  %9 = load ptr, ptr %5, align 8
  %10 = getelementptr inbounds nuw %struct.ExecAuxRowMark, ptr %9, i32 0, i32 0
  store ptr %8, ptr %10, align 8
  %11 = load ptr, ptr %3, align 8
  %12 = getelementptr inbounds nuw %struct.ExecRowMark, ptr %11, i32 0, i32 5
  %13 = load i32, ptr %12, align 8
  %14 = icmp ne i32 %13, 5
  br i1 %14, label %15, label %44

15:                                               ; preds = %2
  %16 = getelementptr inbounds [32 x i8], ptr %6, i64 0, i64 0
  %17 = load ptr, ptr %3, align 8
  %18 = getelementptr inbounds nuw %struct.ExecRowMark, ptr %17, i32 0, i32 4
  %19 = load i32, ptr %18, align 4
  %20 = call i32 (ptr, i64, ptr, ...) @pg_snprintf(ptr noundef %16, i64 noundef 32, ptr noundef @.str.32, i32 noundef %19)
  %21 = load ptr, ptr %4, align 8
  %22 = getelementptr inbounds [32 x i8], ptr %6, i64 0, i64 0
  %23 = call signext i16 @ExecFindJunkAttributeInTlist(ptr noundef %21, ptr noundef %22)
  %24 = load ptr, ptr %5, align 8
  %25 = getelementptr inbounds nuw %struct.ExecAuxRowMark, ptr %24, i32 0, i32 1
  store i16 %23, ptr %25, align 8
  %26 = load ptr, ptr %5, align 8
  %27 = getelementptr inbounds nuw %struct.ExecAuxRowMark, ptr %26, i32 0, i32 1
  %28 = load i16, ptr %27, align 8
  %29 = sext i16 %28 to i32
  %30 = icmp ne i32 %29, 0
  br i1 %30, label %43, label %31

31:                                               ; preds = %15
  br label %32

32:                                               ; preds = %31
  br i1 true, label %33, label %35

33:                                               ; preds = %32
  %34 = call zeroext i1 @errstart_cold(i32 noundef 21, ptr noundef null) #10
  br i1 %34, label %37, label %40

35:                                               ; preds = %32
  %36 = call zeroext i1 @errstart(i32 noundef 21, ptr noundef null)
  br i1 %36, label %37, label %40

37:                                               ; preds = %35, %33
  %38 = getelementptr inbounds [32 x i8], ptr %6, i64 0, i64 0
  %39 = call i32 (ptr, ...) @errmsg_internal(ptr noundef @.str.33, ptr noundef %38)
  call void @errfinish(ptr noundef @.str.1, i32 noundef 2451, ptr noundef @__func__.ExecBuildAuxRowMark)
  br label %40

40:                                               ; preds = %37, %35, %33
  unreachable

41:                                               ; No predecessors!
  br label %42

42:                                               ; preds = %41
  br label %43

43:                                               ; preds = %42, %15
  br label %73

44:                                               ; preds = %2
  %45 = getelementptr inbounds [32 x i8], ptr %6, i64 0, i64 0
  %46 = load ptr, ptr %3, align 8
  %47 = getelementptr inbounds nuw %struct.ExecRowMark, ptr %46, i32 0, i32 4
  %48 = load i32, ptr %47, align 4
  %49 = call i32 (ptr, i64, ptr, ...) @pg_snprintf(ptr noundef %45, i64 noundef 32, ptr noundef @.str.34, i32 noundef %48)
  %50 = load ptr, ptr %4, align 8
  %51 = getelementptr inbounds [32 x i8], ptr %6, i64 0, i64 0
  %52 = call signext i16 @ExecFindJunkAttributeInTlist(ptr noundef %50, ptr noundef %51)
  %53 = load ptr, ptr %5, align 8
  %54 = getelementptr inbounds nuw %struct.ExecAuxRowMark, ptr %53, i32 0, i32 3
  store i16 %52, ptr %54, align 4
  %55 = load ptr, ptr %5, align 8
  %56 = getelementptr inbounds nuw %struct.ExecAuxRowMark, ptr %55, i32 0, i32 3
  %57 = load i16, ptr %56, align 4
  %58 = sext i16 %57 to i32
  %59 = icmp ne i32 %58, 0
  br i1 %59, label %72, label %60

60:                                               ; preds = %44
  br label %61

61:                                               ; preds = %60
  br i1 true, label %62, label %64

62:                                               ; preds = %61
  %63 = call zeroext i1 @errstart_cold(i32 noundef 21, ptr noundef null) #10
  br i1 %63, label %66, label %69

64:                                               ; preds = %61
  %65 = call zeroext i1 @errstart(i32 noundef 21, ptr noundef null)
  br i1 %65, label %66, label %69

66:                                               ; preds = %64, %62
  %67 = getelementptr inbounds [32 x i8], ptr %6, i64 0, i64 0
  %68 = call i32 (ptr, ...) @errmsg_internal(ptr noundef @.str.33, ptr noundef %67)
  call void @errfinish(ptr noundef @.str.1, i32 noundef 2460, ptr noundef @__func__.ExecBuildAuxRowMark)
  br label %69

69:                                               ; preds = %66, %64, %62
  unreachable

70:                                               ; No predecessors!
  br label %71

71:                                               ; preds = %70
  br label %72

72:                                               ; preds = %71, %44
  br label %73

73:                                               ; preds = %72, %43
  %74 = load ptr, ptr %3, align 8
  %75 = getelementptr inbounds nuw %struct.ExecRowMark, ptr %74, i32 0, i32 2
  %76 = load i32, ptr %75, align 4
  %77 = load ptr, ptr %3, align 8
  %78 = getelementptr inbounds nuw %struct.ExecRowMark, ptr %77, i32 0, i32 3
  %79 = load i32, ptr %78, align 8
  %80 = icmp ne i32 %76, %79
  br i1 %80, label %81, label %110

81:                                               ; preds = %73
  %82 = getelementptr inbounds [32 x i8], ptr %6, i64 0, i64 0
  %83 = load ptr, ptr %3, align 8
  %84 = getelementptr inbounds nuw %struct.ExecRowMark, ptr %83, i32 0, i32 4
  %85 = load i32, ptr %84, align 4
  %86 = call i32 (ptr, i64, ptr, ...) @pg_snprintf(ptr noundef %82, i64 noundef 32, ptr noundef @.str.35, i32 noundef %85)
  %87 = load ptr, ptr %4, align 8
  %88 = getelementptr inbounds [32 x i8], ptr %6, i64 0, i64 0
  %89 = call signext i16 @ExecFindJunkAttributeInTlist(ptr noundef %87, ptr noundef %88)
  %90 = load ptr, ptr %5, align 8
  %91 = getelementptr inbounds nuw %struct.ExecAuxRowMark, ptr %90, i32 0, i32 2
  store i16 %89, ptr %91, align 2
  %92 = load ptr, ptr %5, align 8
  %93 = getelementptr inbounds nuw %struct.ExecAuxRowMark, ptr %92, i32 0, i32 2
  %94 = load i16, ptr %93, align 2
  %95 = sext i16 %94 to i32
  %96 = icmp ne i32 %95, 0
  br i1 %96, label %109, label %97

97:                                               ; preds = %81
  br label %98

98:                                               ; preds = %97
  br i1 true, label %99, label %101

99:                                               ; preds = %98
  %100 = call zeroext i1 @errstart_cold(i32 noundef 21, ptr noundef null) #10
  br i1 %100, label %103, label %106

101:                                              ; preds = %98
  %102 = call zeroext i1 @errstart(i32 noundef 21, ptr noundef null)
  br i1 %102, label %103, label %106

103:                                              ; preds = %101, %99
  %104 = getelementptr inbounds [32 x i8], ptr %6, i64 0, i64 0
  %105 = call i32 (ptr, ...) @errmsg_internal(ptr noundef @.str.33, ptr noundef %104)
  call void @errfinish(ptr noundef @.str.1, i32 noundef 2470, ptr noundef @__func__.ExecBuildAuxRowMark)
  br label %106

106:                                              ; preds = %103, %101, %99
  unreachable

107:                                              ; No predecessors!
  br label %108

108:                                              ; preds = %107
  br label %109

109:                                              ; preds = %108, %81
  br label %110

110:                                              ; preds = %109, %73
  %111 = load ptr, ptr %5, align 8
  call void @llvm.lifetime.end.p0(i64 32, ptr %6) #9
  call void @llvm.lifetime.end.p0(i64 8, ptr %5) #9
  ret ptr %111
}