; Function Attrs: nounwind uwtable
define dso_local noundef ptr @ExecBuildAuxRowMark(ptr noundef %0, ptr noundef %1) local_unnamed_addr #0 {
  %3 = alloca [32 x i8], align 16
  %4 = tail call ptr @palloc0(i64 noundef 16) #9
  call void @llvm.lifetime.start.p0(i64 32, ptr nonnull %3) #9
  store ptr %0, ptr %4, align 8
  %5 = getelementptr inbounds nuw i8, ptr %0, i64 24
  %6 = load i32, ptr %5, align 8
  %.not = icmp eq i32 %6, 5
  %7 = getelementptr inbounds nuw i8, ptr %0, i64 20
  %8 = load i32, ptr %7, align 4
  br i1 %.not, label %16, label %9

9:                                                ; preds = %2
  %10 = call i32 (ptr, i64, ptr, ...) @pg_snprintf(ptr noundef nonnull %3, i64 noundef 32, ptr noundef nonnull @.str.32, i32 noundef %8) #9
  %11 = call signext i16 @ExecFindJunkAttributeInTlist(ptr noundef %1, ptr noundef nonnull %3) #9
  %12 = getelementptr inbounds nuw i8, ptr %4, i64 8
  store i16 %11, ptr %12, align 8
  %.not19 = icmp eq i16 %11, 0
  br i1 %.not19, label %13, label %23

13:                                               ; preds = %9
  %14 = call zeroext i1 @errstart_cold(i32 noundef 21, ptr noundef null) #10
  call void @llvm.assume(i1 %14)
  %15 = call i32 (ptr, ...) @errmsg_internal(ptr noundef nonnull @.str.33, ptr noundef nonnull %3) #9
  call void @errfinish(ptr noundef nonnull @.str.1, i32 noundef 2451, ptr noundef nonnull @__func__.ExecBuildAuxRowMark) #9
  unreachable

16:                                               ; preds = %2
  %17 = call i32 (ptr, i64, ptr, ...) @pg_snprintf(ptr noundef nonnull %3, i64 noundef 32, ptr noundef nonnull @.str.34, i32 noundef %8) #9
  %18 = call signext i16 @ExecFindJunkAttributeInTlist(ptr noundef %1, ptr noundef nonnull %3) #9
  %19 = getelementptr inbounds nuw i8, ptr %4, i64 12
  store i16 %18, ptr %19, align 4
  %.not18 = icmp eq i16 %18, 0
  br i1 %.not18, label %20, label %23

20:                                               ; preds = %16
  %21 = call zeroext i1 @errstart_cold(i32 noundef 21, ptr noundef null) #10
  call void @llvm.assume(i1 %21)
  %22 = call i32 (ptr, ...) @errmsg_internal(ptr noundef nonnull @.str.33, ptr noundef nonnull %3) #9
  call void @errfinish(ptr noundef nonnull @.str.1, i32 noundef 2460, ptr noundef nonnull @__func__.ExecBuildAuxRowMark) #9
  unreachable

23:                                               ; preds = %16, %9
  %24 = getelementptr inbounds nuw i8, ptr %0, i64 12
  %25 = load i32, ptr %24, align 4
  %26 = getelementptr inbounds nuw i8, ptr %0, i64 16
  %27 = load i32, ptr %26, align 8
  %.not20 = icmp eq i32 %25, %27
  br i1 %.not20, label %37, label %28

28:                                               ; preds = %23
  %29 = getelementptr inbounds nuw i8, ptr %0, i64 20
  %30 = load i32, ptr %29, align 4
  %31 = call i32 (ptr, i64, ptr, ...) @pg_snprintf(ptr noundef nonnull %3, i64 noundef 32, ptr noundef nonnull @.str.35, i32 noundef %30) #9
  %32 = call signext i16 @ExecFindJunkAttributeInTlist(ptr noundef %1, ptr noundef nonnull %3) #9
  %33 = getelementptr inbounds nuw i8, ptr %4, i64 10
  store i16 %32, ptr %33, align 2
  %.not21 = icmp eq i16 %32, 0
  br i1 %.not21, label %34, label %37

34:                                               ; preds = %28
  %35 = call zeroext i1 @errstart_cold(i32 noundef 21, ptr noundef null) #10
  call void @llvm.assume(i1 %35)
  %36 = call i32 (ptr, ...) @errmsg_internal(ptr noundef nonnull @.str.33, ptr noundef nonnull %3) #9
  call void @errfinish(ptr noundef nonnull @.str.1, i32 noundef 2470, ptr noundef nonnull @__func__.ExecBuildAuxRowMark) #9
  unreachable

37:                                               ; preds = %28, %23
  call void @llvm.lifetime.end.p0(i64 32, ptr nonnull %3) #9
  ret ptr %4
}